target datalayout = "e-m:e-p270:32:32-p271:32:32-p272:64:64-i64:64-i128:128-f80:128-n8:16:32:64-S128"
target triple = "x86_64-pc-linux-gnu"

%class.QString = type { %struct.QArrayDataPointer }
%struct.QArrayDataPointer = type { ptr, ptr, i64 }
%class.ServiceResponseTimeDialog = type { %class.TapParameterDialog, ptr, %struct._srt_data_t }
%class.TapParameterDialog = type { %class.WiresharkDialog.base, ptr, %class.QMenu, %class.QList.1, i32, ptr }
%class.WiresharkDialog.base = type <{ %class.GeometryStateDialog, ptr, i8, [7 x i8], %class.QString, %class.QList, i32, i8 }>
%class.GeometryStateDialog = type { %class.QDialog, %class.QString, ptr }
%class.QDialog = type { %class.QWidget }
%class.QWidget = type { %class.QObject, %class.QPaintDevice.base, ptr }
%class.QObject = type { ptr, %class.QScopedPointer }
%class.QScopedPointer = type { ptr }
%class.QPaintDevice.base = type <{ ptr, i16 }>
%class.QList = type { %struct.QArrayDataPointer.0 }
%struct.QArrayDataPointer.0 = type { ptr, ptr, i64 }
%class.QMenu = type { %class.QWidget }
%class.QList.1 = type { %struct.QArrayDataPointer.4 }
%struct.QArrayDataPointer.4 = type { ptr, ptr, i64 }
%struct._srt_data_t = type { ptr, ptr }
%struct._GArray = type { ptr, i32 }

; Function Attrs: mustprogress null_pointer_is_valid sspstrong uwtable
define void @_ZN25ServiceResponseTimeDialog11addSrtTableEPK15_srt_stat_table(ptr noundef align 8 dereferenceable_or_null(256) %0, ptr noundef %1) #3 align 2 personality ptr @__gxx_personality_v0 {
  %3 = alloca ptr, align 8
  %4 = alloca ptr, align 8
  %5 = alloca ptr, align 8
  %6 = alloca i32, align 4
  store ptr %0, ptr %3, align 8
  store ptr %1, ptr %4, align 8
  %7 = load ptr, ptr %3, align 8
  %8 = call noalias noundef ptr @_Znwm(i64 noundef 104) #27
  %9 = invoke noundef ptr @_ZN18TapParameterDialog15statsTreeWidgetEv(ptr noundef align 8 dereferenceable_or_null(232) %7)
          to label %10 unwind label %13

10:                                               ; preds = %2
  %11 = load ptr, ptr %4, align 8
  invoke void @_ZN22SrtTableTreeWidgetItemC2EP11QTreeWidgetPK15_srt_stat_table(ptr noundef align 8 dereferenceable_or_null(104) %8, ptr noundef %9, ptr noundef %11)
          to label %12 unwind label %13

12:                                               ; preds = %10
  ret void

13:                                               ; preds = %10, %2
  %14 = landingpad { ptr, i32 }
          cleanup
  %15 = extractvalue { ptr, i32 } %14, 0
  store ptr %15, ptr %5, align 8
  %16 = extractvalue { ptr, i32 } %14, 1
  store i32 %16, ptr %6, align 4
  call void @_ZdlPvm(ptr noundef %8, i64 noundef 104) #25
  br label %17

17:                                               ; preds = %13
  %18 = load ptr, ptr %5, align 8
  %19 = load i32, ptr %6, align 4
  %20 = insertvalue { ptr, i32 } poison, ptr %18, 0
  %21 = insertvalue { ptr, i32 } %20, i32 %19, 1
  resume { ptr, i32 } %21
}

; Function Attrs: mustprogress null_pointer_is_valid sspstrong uwtable
define void @_ZN25ServiceResponseTimeDialog15endRetapPacketsEv(ptr noundef align 8 dereferenceable_or_null(256) %0) unnamed_addr #3 align 2 {
  %2 = alloca ptr, align 8
  %3 = alloca i32, align 4
  %4 = alloca ptr, align 8
  store ptr %0, ptr %2, align 8
  %5 = load ptr, ptr %2, align 8
  call void @llvm.lifetime.start.p0(i64 4, ptr %3) #2
  store i32 0, ptr %3, align 4
  br label %6

6:                                                ; preds = %26, %1
  %7 = load i32, ptr %3, align 4
  %8 = getelementptr inbounds nuw %class.ServiceResponseTimeDialog, ptr %5, i32 0, i32 2
  %9 = getelementptr inbounds nuw %struct._srt_data_t, ptr %8, i32 0, i32 0
  %10 = load ptr, ptr %9, align 8
  %11 = getelementptr inbounds nuw %struct._GArray, ptr %10, i32 0, i32 1
  %12 = load i32, ptr %11, align 8
  %13 = icmp ult i32 %7, %12
  br i1 %13, label %15, label %14

14:                                               ; preds = %6
  call void @llvm.lifetime.end.p0(i64 4, ptr %3) #2
  br label %29

15:                                               ; preds = %6
  call void @llvm.lifetime.start.p0(i64 8, ptr %4) #2
  %16 = getelementptr inbounds nuw %class.ServiceResponseTimeDialog, ptr %5, i32 0, i32 2
  %17 = getelementptr inbounds nuw %struct._srt_data_t, ptr %16, i32 0, i32 0
  %18 = load ptr, ptr %17, align 8
  %19 = getelementptr inbounds nuw %struct._GArray, ptr %18, i32 0, i32 0
  %20 = load ptr, ptr %19, align 8
  %21 = load i32, ptr %3, align 4
  %22 = zext i32 %21 to i64
  %23 = getelementptr ptr, ptr %20, i64 %22
  %24 = load ptr, ptr %23, align 8
  store ptr %24, ptr %4, align 8
  %25 = load ptr, ptr %4, align 8
  call void @_ZN25ServiceResponseTimeDialog11addSrtTableEPK15_srt_stat_table(ptr noundef align 8 dereferenceable_or_null(256) %5, ptr noundef %25)
  call void @llvm.lifetime.end.p0(i64 8, ptr %4) #2
  br label %26

26:                                               ; preds = %15
  %27 = load i32, ptr %3, align 4
  %28 = add i32 %27, 1
  store i32 %28, ptr %3, align 4
  br label %6, !llvm.loop !15

29:                                               ; preds = %14
  call void @_ZN15WiresharkDialog15endRetapPacketsEv(ptr noundef align 8 dereferenceable_or_null(141) %5)
  ret void
}