; Function Attrs: mustprogress null_pointer_is_valid sspstrong uwtable
define void @_ZN25ServiceResponseTimeDialog15endRetapPacketsEv(ptr noundef align 8 dereferenceable_or_null(256) %0) unnamed_addr #2 align 2 personality ptr @__gxx_personality_v0 {
  %2 = getelementptr inbounds nuw i8, ptr %0, i64 240
  %3 = load ptr, ptr %2, align 8
  %4 = getelementptr inbounds nuw i8, ptr %3, i64 8
  %5 = load i32, ptr %4, align 8
  %.not = icmp eq i32 %5, 0
  br i1 %.not, label %._crit_edge, label %.lr.ph

._crit_edge:                                      ; preds = %_ZN25ServiceResponseTimeDialog11addSrtTableEPK15_srt_stat_table.exit, %1
  tail call void @_ZN15WiresharkDialog15endRetapPacketsEv(ptr noundef align 8 dereferenceable_or_null(141) %0)
  ret void

.lr.ph:                                           ; preds = %1, %_ZN25ServiceResponseTimeDialog11addSrtTableEPK15_srt_stat_table.exit
  %indvars.iv = phi i64 [ %indvars.iv.next, %_ZN25ServiceResponseTimeDialog11addSrtTableEPK15_srt_stat_table.exit ], [ 0, %1 ]
  %6 = phi ptr [ %15, %_ZN25ServiceResponseTimeDialog11addSrtTableEPK15_srt_stat_table.exit ], [ %3, %1 ]
  %7 = load ptr, ptr %6, align 8
  %8 = getelementptr ptr, ptr %7, i64 %indvars.iv
  %9 = load ptr, ptr %8, align 8
  %10 = tail call noalias noundef dereferenceable_or_null(104) ptr @_Znwm(i64 noundef 104) #29
  %11 = invoke noundef ptr @_ZN18TapParameterDialog15statsTreeWidgetEv(ptr noundef align 8 dereferenceable_or_null(256) %0)
          to label %12 unwind label %13

12:                                               ; preds = %.lr.ph
  invoke void @_ZN22SrtTableTreeWidgetItemC2EP11QTreeWidgetPK15_srt_stat_table(ptr noundef align 8 dereferenceable_or_null(104) %10, ptr noundef %11, ptr noundef %9)
          to label %_ZN25ServiceResponseTimeDialog11addSrtTableEPK15_srt_stat_table.exit unwind label %13

13:                                               ; preds = %12, %.lr.ph
  %14 = landingpad { ptr, i32 }
          cleanup
  tail call void @_ZdlPvm(ptr noundef %10, i64 noundef 104) #27
  resume { ptr, i32 } %14

_ZN25ServiceResponseTimeDialog11addSrtTableEPK15_srt_stat_table.exit: ; preds = %12
  %indvars.iv.next = add nuw nsw i64 %indvars.iv, 1
  %15 = load ptr, ptr %2, align 8
  %16 = getelementptr inbounds nuw i8, ptr %15, i64 8
  %17 = load i32, ptr %16, align 8
  %18 = zext i32 %17 to i64
  %19 = icmp samesign ult i64 %indvars.iv.next, %18
  br i1 %19, label %.lr.ph, label %._crit_edge, !llvm.loop !22
}